target datalayout = "e-m:e-p270:32:32-p271:32:32-p272:64:64-i64:64-i128:128-f80:128-n8:16:32:64-S128"
target triple = "x86_64-pc-linux-gnu"

%struct.strvec = type { ptr, i64, i64 }
%struct.credential_capability = type { i8, [3 x i8] }
%struct.credential = type { %struct.string_list, %struct.strvec, %struct.strvec, %struct.strvec, i16, [2 x i8], %struct.credential_capability, %struct.credential_capability, ptr, ptr, ptr, ptr, ptr, ptr, ptr, i64, ptr }
%struct.string_list = type { ptr, i64, i64, i8, ptr }
%struct.active_request_slot = type { ptr, i32, i32, i64, ptr, ptr, ptr, ptr, ptr }
%struct.slot_results = type { i32, i64, i64, i64 }

@http_proactive_auth = internal global i32 0, align 4
@curlm = internal global ptr null, align 8
@active_requests = dso_local global i32 0, align 4
@curl_errorstr = dso_local global [256 x i8] zeroinitializer, align 16
@http_auth_methods = internal global i64 -17, align 8
@.str.35 = private unnamed_addr constant [33 x i8] c"curl_multi_add_handle failed: %s\00", align 1
@.str.37 = private unnamed_addr constant [38 x i8] c"The requested URL returned error: %ld\00", align 1
@.str.38 = private unnamed_addr constant [29 x i8] c"failed to start HTTP request\00", align 1
@the_repository = external global ptr, align 8
@http_auth_methods_restricted = internal global i32 0, align 4

; Function Attrs: nounwind uwtable
define internal i32 @always_auth_proactively() #0 {
  %1 = load i32, ptr @http_proactive_auth, align 4, !tbaa !19
  %2 = icmp ne i32 %1, 0
  br i1 %2, label %3, label %6

3:                                                ; preds = %0
  %4 = load i32, ptr @http_proactive_auth, align 4, !tbaa !19
  %5 = icmp ne i32 %4, 1
  br label %6

6:                                                ; preds = %3, %0
  %7 = phi i1 [ false, %0 ], [ %5, %3 ]
  %8 = zext i1 %7 to i32
  ret i32 %8
}

; Function Attrs: inlinehint nounwind uwtable
define internal i32 @missing__target(i32 noundef %0, i32 noundef %1) #5 {
  %3 = alloca i32, align 4
  %4 = alloca i32, align 4
  store i32 %0, ptr %3, align 4, !tbaa !19
  store i32 %1, ptr %4, align 4, !tbaa !19
  %5 = load i32, ptr %4, align 4, !tbaa !19
  %6 = icmp eq i32 %5, 37
  br i1 %6, label %21, label %7

7:                                                ; preds = %2
  %8 = load i32, ptr %3, align 4, !tbaa !19
  %9 = icmp eq i32 %8, 404
  br i1 %9, label %10, label %13

10:                                               ; preds = %7
  %11 = load i32, ptr %4, align 4, !tbaa !19
  %12 = icmp eq i32 %11, 22
  br i1 %12, label %21, label %13

13:                                               ; preds = %10, %7
  %14 = load i32, ptr %3, align 4, !tbaa !19
  %15 = icmp eq i32 %14, 550
  br i1 %15, label %16, label %19

16:                                               ; preds = %13
  %17 = load i32, ptr %4, align 4, !tbaa !19
  %18 = icmp eq i32 %17, 19
  br label %19

19:                                               ; preds = %16, %13
  %20 = phi i1 [ false, %13 ], [ %18, %16 ]
  br label %21

21:                                               ; preds = %19, %10, %2
  %22 = phi i1 [ true, %10 ], [ true, %2 ], [ %20, %19 ]
  %23 = zext i1 %22 to i32
  ret i32 %23
}

; Function Attrs: nounwind uwtable
define dso_local void @normalize_curl_result(ptr noundef %0, i64 noundef %1, ptr noundef %2, i64 noundef %3) #0 {
  %5 = alloca ptr, align 8
  %6 = alloca i64, align 8
  %7 = alloca ptr, align 8
  %8 = alloca i64, align 8
  store ptr %0, ptr %5, align 8, !tbaa !11
  store i64 %1, ptr %6, align 8, !tbaa !9
  store ptr %2, ptr %7, align 8, !tbaa !4
  store i64 %3, ptr %8, align 8, !tbaa !9
  %9 = load ptr, ptr %5, align 8, !tbaa !11
  %10 = load i32, ptr %9, align 4, !tbaa !19
  %11 = icmp eq i32 %10, 0
  br i1 %11, label %12, label %21

12:                                               ; preds = %4
  %13 = load i64, ptr %6, align 8, !tbaa !9
  %14 = icmp sge i64 %13, 300
  br i1 %14, label %15, label %21

15:                                               ; preds = %12
  %16 = load ptr, ptr %5, align 8, !tbaa !11
  store i32 22, ptr %16, align 4, !tbaa !19
  %17 = load ptr, ptr %7, align 8, !tbaa !4
  %18 = load i64, ptr %8, align 8, !tbaa !9
  %19 = load i64, ptr %6, align 8, !tbaa !9
  %20 = call i32 (ptr, i64, ptr, ...) @xsnprintf(ptr noundef %17, i64 noundef %18, ptr noundef @.str.37, i64 noundef %19)
  br label %21

21:                                               ; preds = %15, %12, %4
  ret void
}

; Function Attrs: nounwind uwtable
define internal i32 @handle_curl_result(ptr noundef %0) #0 {
  %2 = alloca i32, align 4
  %3 = alloca ptr, align 8
  store ptr %0, ptr %3, align 8, !tbaa !136
  %4 = load ptr, ptr %3, align 8, !tbaa !136
  %5 = getelementptr inbounds nuw %struct.slot_results, ptr %4, i32 0, i32 0
  %6 = load ptr, ptr %3, align 8, !tbaa !136
  %7 = getelementptr inbounds nuw %struct.slot_results, ptr %6, i32 0, i32 1
  %8 = load i64, ptr %7, align 8, !tbaa !137
  call void @normalize_curl_result(ptr noundef %5, i64 noundef %8, ptr noundef @curl_errorstr, i64 noundef 256)
  %9 = load ptr, ptr %3, align 8, !tbaa !136
  %10 = getelementptr inbounds nuw %struct.slot_results, ptr %9, i32 0, i32 0
  %11 = load i32, ptr %10, align 8, !tbaa !139
  %12 = icmp eq i32 %11, 0
  br i1 %12, label %13, label %17

13:                                               ; preds = %1
  %14 = load ptr, ptr @the_repository, align 8, !tbaa !66
  call void @credential_approve(ptr noundef %14, ptr noundef @http_auth)
  %15 = load ptr, ptr @the_repository, align 8, !tbaa !66
  call void @credential_approve(ptr noundef %15, ptr noundef @proxy_auth)
  %16 = load ptr, ptr @the_repository, align 8, !tbaa !66
  call void @credential_approve(ptr noundef %16, ptr noundef @cert_auth)
  store i32 0, ptr %2, align 4
  br label %102

17:                                               ; preds = %1
  %18 = load ptr, ptr %3, align 8, !tbaa !136
  %19 = getelementptr inbounds nuw %struct.slot_results, ptr %18, i32 0, i32 0
  %20 = load i32, ptr %19, align 8, !tbaa !139
  %21 = icmp eq i32 %20, 58
  br i1 %21, label %22, label %24

22:                                               ; preds = %17
  %23 = load ptr, ptr @the_repository, align 8, !tbaa !66
  call void @credential_reject(ptr noundef %23, ptr noundef @cert_auth)
  store i32 5, ptr %2, align 4
  br label %102

24:                                               ; preds = %17
  %25 = load ptr, ptr %3, align 8, !tbaa !136
  %26 = getelementptr inbounds nuw %struct.slot_results, ptr %25, i32 0, i32 0
  %27 = load i32, ptr %26, align 8, !tbaa !139
  %28 = icmp eq i32 %27, 90
  br i1 %28, label %29, label %30

29:                                               ; preds = %24
  store i32 6, ptr %2, align 4
  br label %102

30:                                               ; preds = %24
  %31 = load ptr, ptr %3, align 8, !tbaa !136
  %32 = getelementptr inbounds nuw %struct.slot_results, ptr %31, i32 0, i32 1
  %33 = load i64, ptr %32, align 8, !tbaa !137
  %34 = trunc i64 %33 to i32
  %35 = load ptr, ptr %3, align 8, !tbaa !136
  %36 = getelementptr inbounds nuw %struct.slot_results, ptr %35, i32 0, i32 0
  %37 = load i32, ptr %36, align 8, !tbaa !139
  %38 = call i32 @missing__target(i32 noundef %34, i32 noundef %37)
  %39 = icmp ne i32 %38, 0
  br i1 %39, label %40, label %41

40:                                               ; preds = %30
  store i32 1, ptr %2, align 4
  br label %102

41:                                               ; preds = %30
  %42 = load ptr, ptr %3, align 8, !tbaa !136
  %43 = getelementptr inbounds nuw %struct.slot_results, ptr %42, i32 0, i32 1
  %44 = load i64, ptr %43, align 8, !tbaa !137
  %45 = icmp eq i64 %44, 401
  br i1 %45, label %46, label %85

46:                                               ; preds = %41
  %47 = load ptr, ptr getelementptr inbounds nuw (%struct.credential, ptr @http_auth, i32 0, i32 8), align 8, !tbaa !114
  %48 = icmp ne ptr %47, null
  br i1 %48, label %49, label %52

49:                                               ; preds = %46
  %50 = load ptr, ptr getelementptr inbounds nuw (%struct.credential, ptr @http_auth, i32 0, i32 9), align 8, !tbaa !80
  %51 = icmp ne ptr %50, null
  br i1 %51, label %58, label %52

52:                                               ; preds = %49, %46
  %53 = load ptr, ptr getelementptr inbounds nuw (%struct.credential, ptr @http_auth, i32 0, i32 16), align 8, !tbaa !27
  %54 = icmp ne ptr %53, null
  br i1 %54, label %55, label %71

55:                                               ; preds = %52
  %56 = load ptr, ptr getelementptr inbounds nuw (%struct.credential, ptr @http_auth, i32 0, i32 10), align 8, !tbaa !34
  %57 = icmp ne ptr %56, null
  br i1 %57, label %58, label %71

58:                                               ; preds = %55, %49
  %59 = load i16, ptr getelementptr inbounds nuw (%struct.credential, ptr @http_auth, i32 0, i32 4), align 8
  %60 = lshr i16 %59, 4
  %61 = and i16 %60, 1
  %62 = zext i16 %61 to i32
  %63 = icmp ne i32 %62, 0
  br i1 %63, label %64, label %65

64:                                               ; preds = %58
  call void @credential_clear_secrets(ptr noundef @http_auth)
  store i32 4, ptr %2, align 4
  br label %102

65:                                               ; preds = %58
  %66 = load ptr, ptr @the_repository, align 8, !tbaa !66
  call void @credential_reject(ptr noundef %66, ptr noundef @http_auth)
  %67 = call i32 @always_auth_proactively()
  %68 = icmp ne i32 %67, 0
  br i1 %68, label %69, label %70

69:                                               ; preds = %65
  store i32 0, ptr @http_proactive_auth, align 4, !tbaa !19
  br label %70

70:                                               ; preds = %69, %65
  store i32 5, ptr %2, align 4
  br label %102

71:                                               ; preds = %55, %52
  %72 = load i64, ptr @http_auth_methods, align 8, !tbaa !9
  %73 = and i64 %72, -5
  store i64 %73, ptr @http_auth_methods, align 8, !tbaa !9
  %74 = load ptr, ptr %3, align 8, !tbaa !136
  %75 = getelementptr inbounds nuw %struct.slot_results, ptr %74, i32 0, i32 2
  %76 = load i64, ptr %75, align 8, !tbaa !140
  %77 = icmp ne i64 %76, 0
  br i1 %77, label %78, label %84

78:                                               ; preds = %71
  %79 = load ptr, ptr %3, align 8, !tbaa !136
  %80 = getelementptr inbounds nuw %struct.slot_results, ptr %79, i32 0, i32 2
  %81 = load i64, ptr %80, align 8, !tbaa !140
  %82 = load i64, ptr @http_auth_methods, align 8, !tbaa !9
  %83 = and i64 %82, %81
  store i64 %83, ptr @http_auth_methods, align 8, !tbaa !9
  store i32 1, ptr @http_auth_methods_restricted, align 4, !tbaa !19
  br label %84

84:                                               ; preds = %78, %71
  store i32 4, ptr %2, align 4
  br label %102

85:                                               ; preds = %41
  %86 = load ptr, ptr %3, align 8, !tbaa !136
  %87 = getelementptr inbounds nuw %struct.slot_results, ptr %86, i32 0, i32 3
  %88 = load i64, ptr %87, align 8, !tbaa !141
  %89 = icmp eq i64 %88, 407
  br i1 %89, label %90, label %92

90:                                               ; preds = %85
  %91 = load ptr, ptr @the_repository, align 8, !tbaa !66
  call void @credential_reject(ptr noundef %91, ptr noundef @proxy_auth)
  br label %92

92:                                               ; preds = %90, %85
  %93 = load i8, ptr @curl_errorstr, align 16, !tbaa !65
  %94 = icmp ne i8 %93, 0
  br i1 %94, label %101, label %95

95:                                               ; preds = %92
  %96 = load ptr, ptr %3, align 8, !tbaa !136
  %97 = getelementptr inbounds nuw %struct.slot_results, ptr %96, i32 0, i32 0
  %98 = load i32, ptr %97, align 8, !tbaa !139
  %99 = call ptr @curl_easy_strerror(i32 noundef %98)
  %100 = call i64 @gitstrlcpy(ptr noundef @curl_errorstr, ptr noundef %99, i64 noundef 256)
  br label %101

101:                                              ; preds = %95, %92
  store i32 2, ptr %2, align 4
  br label %102

102:                                              ; preds = %101, %84, %70, %64, %40, %29, %22, %13
  %103 = load i32, ptr %2, align 4
  ret i32 %103
}

; Function Attrs: nounwind uwtable
define dso_local i32 @start_active_slot(ptr noundef %0) #0 {
  %2 = alloca i32, align 4
  %3 = alloca ptr, align 8
  %4 = alloca i32, align 4
  %5 = alloca i32, align 4
  %6 = alloca i32, align 4
  store ptr %0, ptr %3, align 8, !tbaa !88
  call void @llvm.lifetime.start.p0(i64 4, ptr %4) #11
  %7 = load ptr, ptr @curlm, align 8, !tbaa !11
  %8 = load ptr, ptr %3, align 8, !tbaa !88
  %9 = getelementptr inbounds nuw %struct.active_request_slot, ptr %8, i32 0, i32 0
  %10 = load ptr, ptr %9, align 8, !tbaa !94
  %11 = call i32 @curl_multi_add_handle(ptr noundef %7, ptr noundef %10)
  store i32 %11, ptr %4, align 4, !tbaa !19
  call void @llvm.lifetime.start.p0(i64 4, ptr %5) #11
  %12 = load i32, ptr %4, align 4, !tbaa !19
  %13 = icmp ne i32 %12, 0
  br i1 %13, label %14, label %24

14:                                               ; preds = %1
  %15 = load i32, ptr %4, align 4, !tbaa !19
  %16 = icmp ne i32 %15, -1
  br i1 %16, label %17, label %24

17:                                               ; preds = %14
  %18 = load i32, ptr %4, align 4, !tbaa !19
  %19 = call ptr @curl_multi_strerror(i32 noundef %18)
  call void (ptr, ...) @warning(ptr noundef @.str.35, ptr noundef %19)
  %20 = load i32, ptr @active_requests, align 4, !tbaa !19
  %21 = add nsw i32 %20, -1
  store i32 %21, ptr @active_requests, align 4, !tbaa !19
  %22 = load ptr, ptr %3, align 8, !tbaa !88
  %23 = getelementptr inbounds nuw %struct.active_request_slot, ptr %22, i32 0, i32 1
  store i32 0, ptr %23, align 8, !tbaa !97
  store i32 0, ptr %2, align 4
  store i32 1, ptr %6, align 4
  br label %27

24:                                               ; preds = %14, %1
  %25 = load ptr, ptr @curlm, align 8, !tbaa !11
  %26 = call i32 @curl_multi_perform(ptr noundef %25, ptr noundef %5)
  store i32 1, ptr %2, align 4
  store i32 1, ptr %6, align 4
  br label %27

27:                                               ; preds = %24, %17
  call void @llvm.lifetime.end.p0(i64 4, ptr %5) #11
  call void @llvm.lifetime.end.p0(i64 4, ptr %4) #11
  %28 = load i32, ptr %2, align 4
  ret i32 %28
}

; Function Attrs: nounwind uwtable
define dso_local i32 @run_one_slot(ptr noundef %0, ptr noundef %1) #0 {
  %3 = alloca i32, align 4
  %4 = alloca ptr, align 8
  %5 = alloca ptr, align 8
  store ptr %0, ptr %4, align 8, !tbaa !88
  store ptr %1, ptr %5, align 8, !tbaa !136
  %6 = load ptr, ptr %5, align 8, !tbaa !136
  %7 = load ptr, ptr %4, align 8, !tbaa !88
  %8 = getelementptr inbounds nuw %struct.active_request_slot, ptr %7, i32 0, i32 5
  store ptr %6, ptr %8, align 8, !tbaa !100
  %9 = load ptr, ptr %4, align 8, !tbaa !88
  %10 = call i32 @start_active_slot(ptr noundef %9)
  %11 = icmp ne i32 %10, 0
  br i1 %11, label %14, label %12

12:                                               ; preds = %2
  %13 = call i32 (ptr, i64, ptr, ...) @xsnprintf(ptr noundef @curl_errorstr, i64 noundef 256, ptr noundef @.str.38)
  store i32 3, ptr %3, align 4
  br label %18

14:                                               ; preds = %2
  %15 = load ptr, ptr %4, align 8, !tbaa !88
  call void @run_active_slot(ptr noundef %15)
  %16 = load ptr, ptr %5, align 8, !tbaa !136
  %17 = call i32 @handle_curl_result(ptr noundef %16)
  store i32 %17, ptr %3, align 4
  br label %18

18:                                               ; preds = %14, %12
  %19 = load i32, ptr %3, align 4
  ret i32 %19
}