; Function Attrs: nounwind uwtable
define dso_local range(i32 0, 7) i32 @run_one_slot(ptr noundef captures(none) initializes((32, 40)) %0, ptr noundef %1) local_unnamed_addr #3 {
  %3 = alloca i32, align 4
  %4 = getelementptr inbounds nuw i8, ptr %0, i64 32
  store ptr %1, ptr %4, align 8, !tbaa !99
  %5 = load ptr, ptr @curlm, align 8, !tbaa !62
  %6 = load ptr, ptr %0, align 8, !tbaa !87
  %7 = tail call i32 @curl_multi_add_handle(ptr noundef %5, ptr noundef %6) #22
  call void @llvm.lifetime.start.p0(i64 4, ptr nonnull %3) #22
  %8 = add i32 %7, -1
  %or.cond.i = icmp ult i32 %8, -2
  br i1 %or.cond.i, label %9, label %15

9:                                                ; preds = %2
  %10 = tail call ptr @curl_multi_strerror(i32 noundef %7) #22
  tail call void (ptr, ...) @warning(ptr noundef nonnull @.str.35, ptr noundef %10) #22
  %11 = load i32, ptr @active_requests, align 4, !tbaa !38
  %12 = add nsw i32 %11, -1
  store i32 %12, ptr @active_requests, align 4, !tbaa !38
  %13 = getelementptr inbounds nuw i8, ptr %0, i64 8
  store i32 0, ptr %13, align 8, !tbaa !90
  call void @llvm.lifetime.end.p0(i64 4, ptr nonnull %3) #22
  %14 = tail call i32 (ptr, i64, ptr, ...) @xsnprintf(ptr noundef nonnull @curl_errorstr, i64 noundef 256, ptr noundef nonnull @.str.38) #22
  br label %handle_curl_result.exit

15:                                               ; preds = %2
  %16 = load ptr, ptr @curlm, align 8, !tbaa !62
  %17 = call i32 @curl_multi_perform(ptr noundef %16, ptr noundef nonnull %3) #22
  call void @llvm.lifetime.end.p0(i64 4, ptr nonnull %3) #22
  call void @run_active_slot(ptr noundef nonnull %0)
  %18 = getelementptr inbounds nuw i8, ptr %1, i64 8
  %19 = load i64, ptr %18, align 8, !tbaa !103
  %20 = load i32, ptr %1, align 4, !tbaa !38
  %21 = icmp eq i32 %20, 0
  %22 = icmp sgt i64 %19, 299
  %or.cond.i.i = and i1 %22, %21
  br i1 %or.cond.i.i, label %23, label %normalize_curl_result.exit.i

23:                                               ; preds = %15
  store i32 22, ptr %1, align 4, !tbaa !38
  %24 = call i32 (ptr, i64, ptr, ...) @xsnprintf(ptr noundef nonnull @curl_errorstr, i64 noundef 256, ptr noundef nonnull @.str.37, i64 noundef %19) #22
  %.pr.i = load i32, ptr %1, align 8, !tbaa !100
  br label %normalize_curl_result.exit.i

normalize_curl_result.exit.i:                     ; preds = %23, %15
  %25 = phi i32 [ %20, %15 ], [ %.pr.i, %23 ]
  switch i32 %25, label %32 [
    i32 0, label %26
    i32 58, label %30
    i32 90, label %handle_curl_result.exit
  ]

26:                                               ; preds = %normalize_curl_result.exit.i
  %27 = load ptr, ptr @the_repository, align 8, !tbaa !39
  call void @credential_approve(ptr noundef %27, ptr noundef nonnull @http_auth) #22
  %28 = load ptr, ptr @the_repository, align 8, !tbaa !39
  call void @credential_approve(ptr noundef %28, ptr noundef nonnull @proxy_auth) #22
  %29 = load ptr, ptr @the_repository, align 8, !tbaa !39
  call void @credential_approve(ptr noundef %29, ptr noundef nonnull @cert_auth) #22
  br label %handle_curl_result.exit

30:                                               ; preds = %normalize_curl_result.exit.i
  %31 = load ptr, ptr @the_repository, align 8, !tbaa !39
  call void @credential_reject(ptr noundef %31, ptr noundef nonnull @cert_auth) #22
  br label %handle_curl_result.exit

32:                                               ; preds = %normalize_curl_result.exit.i
  %33 = load i64, ptr %18, align 8, !tbaa !103
  %34 = trunc i64 %33 to i32
  %35 = icmp eq i32 %25, 37
  br i1 %35, label %handle_curl_result.exit, label %36

36:                                               ; preds = %32
  %37 = icmp eq i32 %34, 404
  %38 = icmp eq i32 %25, 22
  %or.cond.i21.i = and i1 %38, %37
  br i1 %or.cond.i21.i, label %handle_curl_result.exit, label %missing__target.exit.i

missing__target.exit.i:                           ; preds = %36
  %39 = icmp ne i32 %34, 550
  %40 = icmp ne i32 %25, 19
  %.not25.i = or i1 %40, %39
  br i1 %.not25.i, label %41, label %handle_curl_result.exit

41:                                               ; preds = %missing__target.exit.i
  %42 = icmp eq i64 %33, 401
  br i1 %42, label %43, label %69

43:                                               ; preds = %41
  %44 = load ptr, ptr getelementptr inbounds nuw (i8, ptr @http_auth, i64 128), align 8, !tbaa !73
  %45 = icmp ne ptr %44, null
  %46 = load ptr, ptr getelementptr inbounds nuw (i8, ptr @http_auth, i64 136), align 8
  %47 = icmp ne ptr %46, null
  %or.cond.i6 = select i1 %45, i1 %47, i1 false
  br i1 %or.cond.i6, label %53, label %48

48:                                               ; preds = %43
  %49 = load ptr, ptr getelementptr inbounds nuw (i8, ptr @http_auth, i64 192), align 8, !tbaa !14
  %50 = icmp ne ptr %49, null
  %51 = load ptr, ptr getelementptr inbounds nuw (i8, ptr @http_auth, i64 144), align 8
  %52 = icmp ne ptr %51, null
  %or.cond3.i = select i1 %50, i1 %52, i1 false
  br i1 %or.cond3.i, label %53, label %62

53:                                               ; preds = %48, %43
  %54 = load i16, ptr getelementptr inbounds nuw (i8, ptr @http_auth, i64 112), align 8
  %55 = and i16 %54, 16
  %.not19.i = icmp eq i16 %55, 0
  br i1 %.not19.i, label %57, label %56

56:                                               ; preds = %53
  call void @credential_clear_secrets(ptr noundef nonnull @http_auth) #22
  br label %handle_curl_result.exit

57:                                               ; preds = %53
  %58 = load ptr, ptr @the_repository, align 8, !tbaa !39
  call void @credential_reject(ptr noundef %58, ptr noundef nonnull @http_auth) #22
  %59 = load i32, ptr @http_proactive_auth, align 4, !tbaa !38
  %60 = icmp ult i32 %59, 2
  br i1 %60, label %handle_curl_result.exit, label %61

61:                                               ; preds = %57
  store i32 0, ptr @http_proactive_auth, align 4, !tbaa !38
  br label %handle_curl_result.exit

62:                                               ; preds = %48
  %63 = load i64, ptr @http_auth_methods, align 8, !tbaa !63
  %64 = and i64 %63, -5
  store i64 %64, ptr @http_auth_methods, align 8, !tbaa !63
  %65 = getelementptr inbounds nuw i8, ptr %1, i64 16
  %66 = load i64, ptr %65, align 8, !tbaa !124
  %.not18.i = icmp eq i64 %66, 0
  br i1 %.not18.i, label %handle_curl_result.exit, label %67

67:                                               ; preds = %62
  %68 = and i64 %66, %64
  store i64 %68, ptr @http_auth_methods, align 8, !tbaa !63
  store i1 true, ptr @http_auth_methods_restricted, align 4
  br label %handle_curl_result.exit

69:                                               ; preds = %41
  %70 = getelementptr inbounds nuw i8, ptr %1, i64 24
  %71 = load i64, ptr %70, align 8, !tbaa !125
  %72 = icmp eq i64 %71, 407
  br i1 %72, label %73, label %75

73:                                               ; preds = %69
  %74 = load ptr, ptr @the_repository, align 8, !tbaa !39
  call void @credential_reject(ptr noundef %74, ptr noundef nonnull @proxy_auth) #22
  br label %75

75:                                               ; preds = %73, %69
  %76 = load i8, ptr @curl_errorstr, align 16, !tbaa !24
  %.not17.i = icmp eq i8 %76, 0
  br i1 %.not17.i, label %77, label %handle_curl_result.exit

77:                                               ; preds = %75
  %78 = load i32, ptr %1, align 8, !tbaa !100
  %79 = call ptr @curl_easy_strerror(i32 noundef %78) #22
  %80 = call i64 @gitstrlcpy(ptr noundef nonnull @curl_errorstr, ptr noundef %79, i64 noundef 256) #22
  br label %handle_curl_result.exit

handle_curl_result.exit:                          ; preds = %77, %75, %67, %62, %61, %57, %56, %missing__target.exit.i, %36, %32, %30, %26, %normalize_curl_result.exit.i, %9
  %.0 = phi i32 [ 3, %9 ], [ 0, %26 ], [ 5, %30 ], [ 4, %56 ], [ 6, %normalize_curl_result.exit.i ], [ 1, %missing__target.exit.i ], [ 5, %61 ], [ 5, %57 ], [ 4, %67 ], [ 4, %62 ], [ 2, %77 ], [ 2, %75 ], [ 1, %32 ], [ 1, %36 ]
  ret i32 %.0
}